target datalayout = "e-m:e-p270:32:32-p271:32:32-p272:64:64-i64:64-i128:128-f80:128-n8:16:32:64-S128"
target triple = "x86_64-pc-linux-gnu"

%struct.loopargs_st = type { ptr, ptr, ptr, ptr, ptr, ptr, ptr, [16 x i8], i64, i64, i64, [7 x ptr], [7 x ptr], [7 x ptr], [7 x ptr], [2 x ptr], [2 x ptr], [22 x ptr], [22 x ptr], [24 x ptr], [2 x ptr], [2 x ptr], [1 x ptr], [1 x ptr], [1 x ptr], ptr, ptr, [24 x i64], [5 x ptr], ptr, ptr, ptr, ptr, [111 x ptr], [111 x ptr], [111 x ptr], [111 x i64], [111 x i64], [111 x ptr], [111 x ptr], [111 x ptr], [111 x ptr], [111 x ptr], [111 x ptr], [111 x i64], [111 x i64], [111 x ptr] }

@bio_err = external global ptr, align 8
@testmode = internal global i32 0, align 4
@testnum = internal global i32 0, align 4
@testmoderesult = internal global i32 0, align 4
@run = internal global i32 0, align 4
@.str.462 = private unnamed_addr constant [23 x i8] c"SM2 init sign failure\0A\00", align 1
@.str.463 = private unnamed_addr constant [18 x i8] c"SM2 sign failure\0A\00", align 1

; Function Attrs: nounwind uwtable
define internal void @dofail() #0 {
  %1 = load ptr, ptr @bio_err, align 8, !tbaa !53
  call void @ERR_print_errors(ptr noundef %1)
  store i32 1, ptr @testmoderesult, align 4, !tbaa !4
  ret void
}

; Function Attrs: nounwind uwtable
define internal i32 @SM2_sign_loop(ptr noundef %0) #0 {
  %2 = alloca ptr, align 8
  %3 = alloca ptr, align 8
  %4 = alloca ptr, align 8
  %5 = alloca ptr, align 8
  %6 = alloca ptr, align 8
  %7 = alloca i64, align 8
  %8 = alloca i32, align 4
  %9 = alloca i32, align 4
  %10 = alloca ptr, align 8
  %11 = alloca i64, align 8
  store ptr %0, ptr %2, align 8, !tbaa !115
  call void @llvm.lifetime.start.p0(i64 8, ptr %3) #11
  %12 = load ptr, ptr %2, align 8, !tbaa !115
  %13 = load ptr, ptr %12, align 8, !tbaa !37
  store ptr %13, ptr %3, align 8, !tbaa !37
  call void @llvm.lifetime.start.p0(i64 8, ptr %4) #11
  %14 = load ptr, ptr %3, align 8, !tbaa !37
  %15 = getelementptr inbounds nuw %struct.loopargs_st, ptr %14, i32 0, i32 2
  %16 = load ptr, ptr %15, align 8, !tbaa !92
  store ptr %16, ptr %4, align 8, !tbaa !39
  call void @llvm.lifetime.start.p0(i64 8, ptr %5) #11
  %17 = load ptr, ptr %3, align 8, !tbaa !37
  %18 = getelementptr inbounds nuw %struct.loopargs_st, ptr %17, i32 0, i32 22
  %19 = getelementptr inbounds [1 x ptr], ptr %18, i64 0, i64 0
  store ptr %19, ptr %5, align 8, !tbaa !285
  call void @llvm.lifetime.start.p0(i64 8, ptr %6) #11
  %20 = load ptr, ptr %3, align 8, !tbaa !37
  %21 = getelementptr inbounds nuw %struct.loopargs_st, ptr %20, i32 0, i32 3
  %22 = load ptr, ptr %21, align 8, !tbaa !93
  store ptr %22, ptr %6, align 8, !tbaa !39
  call void @llvm.lifetime.start.p0(i64 8, ptr %7) #11
  call void @llvm.lifetime.start.p0(i64 4, ptr %8) #11
  call void @llvm.lifetime.start.p0(i64 4, ptr %9) #11
  call void @llvm.lifetime.start.p0(i64 8, ptr %10) #11
  %23 = load ptr, ptr %3, align 8, !tbaa !37
  %24 = getelementptr inbounds nuw %struct.loopargs_st, ptr %23, i32 0, i32 24
  %25 = getelementptr inbounds [1 x ptr], ptr %24, i64 0, i64 0
  store ptr %25, ptr %10, align 8, !tbaa !289
  call void @llvm.lifetime.start.p0(i64 8, ptr %11) #11
  %26 = load ptr, ptr %10, align 8, !tbaa !289
  %27 = load i32, ptr @testnum, align 4, !tbaa !4
  %28 = zext i32 %27 to i64
  %29 = getelementptr inbounds nuw ptr, ptr %26, i64 %28
  %30 = load ptr, ptr %29, align 8, !tbaa !8
  %31 = call i32 @EVP_PKEY_get_size(ptr noundef %30)
  %32 = sext i32 %31 to i64
  store i64 %32, ptr %11, align 8, !tbaa !50
  store i32 0, ptr %9, align 4, !tbaa !4
  br label %33

33:                                               ; preds = %80, %1
  %34 = load volatile i32, ptr @run, align 4, !tbaa !4
  %35 = icmp ne i32 %34, 0
  br i1 %35, label %36, label %42

36:                                               ; preds = %33
  %37 = load i32, ptr %9, align 4, !tbaa !4
  %38 = load i32, ptr @testmode, align 4, !tbaa !4
  %39 = icmp ne i32 %38, 0
  %40 = select i1 %39, i32 1, i32 2147483647
  %41 = icmp slt i32 %37, %40
  br label %42

42:                                               ; preds = %36, %33
  %43 = phi i1 [ false, %33 ], [ %41, %36 ]
  br i1 %43, label %44, label %83

44:                                               ; preds = %42
  %45 = load i64, ptr %11, align 8, !tbaa !50
  store i64 %45, ptr %7, align 8, !tbaa !50
  %46 = load ptr, ptr %5, align 8, !tbaa !285
  %47 = load i32, ptr @testnum, align 4, !tbaa !4
  %48 = zext i32 %47 to i64
  %49 = getelementptr inbounds nuw ptr, ptr %46, i64 %48
  %50 = load ptr, ptr %49, align 8, !tbaa !169
  %51 = call ptr @EVP_sm3()
  %52 = load ptr, ptr %10, align 8, !tbaa !289
  %53 = load i32, ptr @testnum, align 4, !tbaa !4
  %54 = zext i32 %53 to i64
  %55 = getelementptr inbounds nuw ptr, ptr %52, i64 %54
  %56 = load ptr, ptr %55, align 8, !tbaa !8
  %57 = call i32 @EVP_DigestSignInit(ptr noundef %50, ptr noundef null, ptr noundef %51, ptr noundef null, ptr noundef %56)
  %58 = icmp ne i32 %57, 0
  br i1 %58, label %62, label %59

59:                                               ; preds = %44
  %60 = load ptr, ptr @bio_err, align 8, !tbaa !53
  %61 = call i32 (ptr, ptr, ...) @BIO_printf(ptr noundef %60, ptr noundef @.str.462)
  call void @dofail()
  store i32 -1, ptr %9, align 4, !tbaa !4
  br label %83

62:                                               ; preds = %44
  %63 = load ptr, ptr %5, align 8, !tbaa !285
  %64 = load i32, ptr @testnum, align 4, !tbaa !4
  %65 = zext i32 %64 to i64
  %66 = getelementptr inbounds nuw ptr, ptr %63, i64 %65
  %67 = load ptr, ptr %66, align 8, !tbaa !169
  %68 = load ptr, ptr %6, align 8, !tbaa !39
  %69 = load ptr, ptr %4, align 8, !tbaa !39
  %70 = call i32 @EVP_DigestSign(ptr noundef %67, ptr noundef %68, ptr noundef %7, ptr noundef %69, i64 noundef 20)
  store i32 %70, ptr %8, align 4, !tbaa !4
  %71 = load i32, ptr %8, align 4, !tbaa !4
  %72 = icmp eq i32 %71, 0
  br i1 %72, label %73, label %76

73:                                               ; preds = %62
  %74 = load ptr, ptr @bio_err, align 8, !tbaa !53
  %75 = call i32 (ptr, ptr, ...) @BIO_printf(ptr noundef %74, ptr noundef @.str.463)
  call void @dofail()
  store i32 -1, ptr %9, align 4, !tbaa !4
  br label %83

76:                                               ; preds = %62
  %77 = load i64, ptr %7, align 8, !tbaa !50
  %78 = load ptr, ptr %3, align 8, !tbaa !37
  %79 = getelementptr inbounds nuw %struct.loopargs_st, ptr %78, i32 0, i32 9
  store i64 %77, ptr %79, align 8, !tbaa !95
  br label %80

80:                                               ; preds = %76
  %81 = load i32, ptr %9, align 4, !tbaa !4
  %82 = add nsw i32 %81, 1
  store i32 %82, ptr %9, align 4, !tbaa !4
  br label %33, !llvm.loop !291

83:                                               ; preds = %73, %59, %42
  %84 = load i32, ptr %9, align 4, !tbaa !4
  call void @llvm.lifetime.end.p0(i64 8, ptr %11) #11
  call void @llvm.lifetime.end.p0(i64 8, ptr %10) #11
  call void @llvm.lifetime.end.p0(i64 4, ptr %9) #11
  call void @llvm.lifetime.end.p0(i64 4, ptr %8) #11
  call void @llvm.lifetime.end.p0(i64 8, ptr %7) #11
  call void @llvm.lifetime.end.p0(i64 8, ptr %6) #11
  call void @llvm.lifetime.end.p0(i64 8, ptr %5) #11
  call void @llvm.lifetime.end.p0(i64 8, ptr %4) #11
  call void @llvm.lifetime.end.p0(i64 8, ptr %3) #11
  ret i32 %84
}