; Function Attrs: nounwind uwtable
define internal i32 @SM2_sign_loop(ptr noundef readonly captures(none) %0) #0 {
  %2 = alloca i64, align 8
  %3 = load ptr, ptr %0, align 8, !tbaa !189
  %4 = getelementptr inbounds nuw i8, ptr %3, i64 16
  %5 = load ptr, ptr %4, align 8, !tbaa !53
  %6 = getelementptr inbounds nuw i8, ptr %3, i64 928
  %7 = getelementptr inbounds nuw i8, ptr %3, i64 24
  %8 = load ptr, ptr %7, align 8, !tbaa !54
  call void @llvm.lifetime.start.p0(i64 8, ptr nonnull %2) #14
  %9 = getelementptr inbounds nuw i8, ptr %3, i64 944
  %10 = load i32, ptr @testnum, align 4, !tbaa !13
  %11 = zext i32 %10 to i64
  %12 = getelementptr inbounds nuw ptr, ptr %9, i64 %11
  %13 = load ptr, ptr %12, align 8, !tbaa !4
  %14 = tail call i32 @EVP_PKEY_get_size(ptr noundef %13) #14
  %15 = sext i32 %14 to i64
  %16 = load volatile i32, ptr @run, align 4, !tbaa !13
  %.not19 = icmp eq i32 %16, 0
  br i1 %.not19, label %.critedge, label %.lr.ph

.lr.ph:                                           ; preds = %1
  %17 = getelementptr inbounds nuw i8, ptr %3, i64 80
  br label %18

18:                                               ; preds = %.lr.ph, %39
  %.020 = phi i32 [ 0, %.lr.ph ], [ %41, %39 ]
  %.b = load i1, ptr @testmode, align 4
  %19 = select i1 %.b, i32 1, i32 2147483647
  %20 = icmp samesign ult i32 %.020, %19
  br i1 %20, label %21, label %.critedge

21:                                               ; preds = %18
  store i64 %15, ptr %2, align 8, !tbaa !28
  %22 = load i32, ptr @testnum, align 4, !tbaa !13
  %23 = zext i32 %22 to i64
  %24 = getelementptr inbounds nuw ptr, ptr %6, i64 %23
  %25 = load ptr, ptr %24, align 8, !tbaa !132
  %26 = call ptr @EVP_sm3() #14
  %27 = load i32, ptr @testnum, align 4, !tbaa !13
  %28 = zext i32 %27 to i64
  %29 = getelementptr inbounds nuw ptr, ptr %9, i64 %28
  %30 = load ptr, ptr %29, align 8, !tbaa !4
  %31 = call i32 @EVP_DigestSignInit(ptr noundef %25, ptr noundef null, ptr noundef %26, ptr noundef null, ptr noundef %30) #14
  %.not16 = icmp eq i32 %31, 0
  br i1 %.not16, label %.critedge.sink.split, label %32

32:                                               ; preds = %21
  %33 = load i32, ptr @testnum, align 4, !tbaa !13
  %34 = zext i32 %33 to i64
  %35 = getelementptr inbounds nuw ptr, ptr %6, i64 %34
  %36 = load ptr, ptr %35, align 8, !tbaa !132
  %37 = call i32 @EVP_DigestSign(ptr noundef %36, ptr noundef %8, ptr noundef nonnull %2, ptr noundef %5, i64 noundef 20) #14
  %38 = icmp eq i32 %37, 0
  br i1 %38, label %.critedge.sink.split, label %39

39:                                               ; preds = %32
  %40 = load i64, ptr %2, align 8, !tbaa !28
  store i64 %40, ptr %17, align 8, !tbaa !56
  %41 = add nuw nsw i32 %.020, 1
  %42 = load volatile i32, ptr @run, align 4, !tbaa !13
  %.not = icmp eq i32 %42, 0
  br i1 %.not, label %.critedge, label %18, !llvm.loop !228

.critedge.sink.split:                             ; preds = %32, %21
  %.str.463.sink = phi ptr [ @.str.462, %21 ], [ @.str.463, %32 ]
  %43 = load ptr, ptr @bio_err, align 8, !tbaa !19
  %44 = call i32 (ptr, ptr, ...) @BIO_printf(ptr noundef %43, ptr noundef nonnull %.str.463.sink) #14
  %45 = load ptr, ptr @bio_err, align 8, !tbaa !19
  call void @ERR_print_errors(ptr noundef %45) #14
  store i1 true, ptr @testmoderesult, align 4
  br label %.critedge

.critedge:                                        ; preds = %18, %39, %.critedge.sink.split, %1
  %.1 = phi i32 [ 0, %1 ], [ -1, %.critedge.sink.split ], [ %.020, %18 ], [ %41, %39 ]
  call void @llvm.lifetime.end.p0(i64 8, ptr nonnull %2) #14
  ret i32 %.1
}